; Function Attrs: nounwind uwtable
define hidden void @SurfaceData_SetOps(ptr noundef %0, ptr noundef %1, ptr noundef %2) local_unnamed_addr #0 {
  %4 = load ptr, ptr %0, align 8
  %5 = getelementptr inbounds i8, ptr %4, i64 808
  %6 = load ptr, ptr %5, align 8
  %7 = load ptr, ptr @pDataID, align 8
  %8 = tail call i64 %6(ptr noundef nonnull %0, ptr noundef %1, ptr noundef %7) #7
  %9 = icmp eq i64 %8, 0
  br i1 %9, label %10, label %16

10:                                               ; preds = %3
  %11 = load ptr, ptr %0, align 8
  %12 = getelementptr inbounds i8, ptr %11, i64 880
  %13 = load ptr, ptr %12, align 8
  %14 = load ptr, ptr @pDataID, align 8
  %15 = ptrtoint ptr %2 to i64
  tail call void %13(ptr noundef nonnull %0, ptr noundef %1, ptr noundef %14, i64 noundef %15) #7
  tail call void @Disposer_AddRecord(ptr noundef nonnull %0, ptr noundef %1, ptr noundef nonnull @SurfaceData_DisposeOps, i64 noundef %15) #7
  br label %17

16:                                               ; preds = %3
  tail call void @JNU_ThrowInternalError(ptr noundef nonnull %0, ptr noundef nonnull @.str.8) #7
  br label %17

17:                                               ; preds = %16, %10
  ret void
}